; Function Attrs: nounwind uwtable
define dso_local i32 @nghttp2_session_get_stream_effective_local_window_size(ptr noundef %0, i32 noundef %1) local_unnamed_addr #1 {
  %3 = tail call ptr @nghttp2_map_find(ptr noundef %0, i32 noundef %1) #20
  %4 = icmp eq ptr %3, null
  br i1 %4, label %nghttp2_session_get_stream.exit.thread, label %5

5:                                                ; preds = %2
  %6 = getelementptr inbounds nuw i8, ptr %3, i64 216
  %7 = load i8, ptr %6, align 8, !tbaa !41
  %8 = and i8 %7, 2
  %.not.i = icmp eq i8 %8, 0
  br i1 %.not.i, label %9, label %nghttp2_session_get_stream.exit.thread

9:                                                ; preds = %5
  %10 = getelementptr inbounds nuw i8, ptr %3, i64 204
  %11 = load i32, ptr %10, align 4, !tbaa !42
  %12 = icmp eq i32 %11, 5
  br i1 %12, label %nghttp2_session_get_stream.exit.thread, label %nghttp2_session_get_stream.exit

nghttp2_session_get_stream.exit:                  ; preds = %9
  %13 = getelementptr inbounds nuw i8, ptr %3, i64 188
  %14 = load i32, ptr %13, align 4, !tbaa !186
  br label %nghttp2_session_get_stream.exit.thread

nghttp2_session_get_stream.exit.thread:           ; preds = %9, %2, %5, %nghttp2_session_get_stream.exit
  %.0 = phi i32 [ %14, %nghttp2_session_get_stream.exit ], [ -1, %5 ], [ -1, %2 ], [ -1, %9 ]
  ret i32 %.0
}